(lp0
(lp1
a(lp2
(lp3
VMMM
p4
aV20080424
p5
aI0
aa(lp6
VMMM
p7
aV20080620
p8
aF-0.7407407407407407
aa(lp9
VMMM
p10
aV20081007
p11
aF-0.7407407407407407
aa(lp12
VMMM
p13
aV20081008
p14
aF-0.7407407407407407
aa(lp15
VMMM
p16
aV20081009
p17
aF-0.7407407407407407
aa(lp18
VMMM
p19
aV20081010
p20
aF-0.7407407407407407
aa(lp21
VMMM
p22
aV20081028
p23
aF-1.0
aa(lp24
VMMM
p25
aV20081112
p26
aF-1.0
aa(lp27
VMMM
p28
aV20081120
p29
aI0
aa(lp30
VMMM
p31
aV20081126
p32
aI0
aaa(lp33
(lp34
VKO
p35
aV20080109
p36
aF1.0
aa(lp37
VKO
p38
aV20080311
p39
aF-1.0
aa(lp40
VKO
p41
aV20080507
p42
aF-1.0
aa(lp43
VKO
p44
aV20080610
p45
aF-1.0
aa(lp46
VKO
p47
aV20080613
p48
aF-1.0
aa(lp49
VKO
p50
aV20080717
p51
aI0
aa(lp52
VKO
p53
aV20080801
p54
aF-1.0
aa(lp55
VKO
p56
aV20081007
p57
aF-1.0
aa(lp58
VKO
p59
aV20081008
p60
aF-1.0
aa(lp61
VKO
p62
aV20081009
p63
aF-0.6
aa(lp64
VKO
p65
aV20081010
p66
aI0
aa(lp67
VKO
p68
aV20081023
p69
aI0
aa(lp70
VKO
p71
aV20081024
p72
aI0
aa(lp73
VKO
p74
aV20081027
p75
aF-1.0
aa(lp76
VKO
p77
aV20081203
p78
aI0
aa(lp79
VKO
p80
aV20081219
p81
aI0
aaa(lp82
(lp83
VJPM
p84
aV20080123
p85
aI0
aa(lp86
VJPM
p87
aV20080124
p88
aI0
aa(lp89
VJPM
p90
aV20080205
p91
aI0
aa(lp92
VJPM
p93
aV20080229
p94
aI0
aa(lp95
VJPM
p96
aV20080303
p97
aI0
aa(lp98
VJPM
p99
aV20080304
p100
aI0
aa(lp101
VJPM
p102
aV20080317
p103
aI0
aa(lp104
VJPM
p105
aV20080318
p106
aI0
aa(lp107
VJPM
p108
aV20080319
p109
aI0
aa(lp110
VJPM
p111
aV20080320
p112
aI0
aa(lp113
VJPM
p114
aV20080324
p115
aI0
aa(lp116
VJPM
p117
aV20080401
p118
aI0
aa(lp119
VJPM
p120
aV20080520
p121
aI0
aa(lp122
VJPM
p123
aV20080521
p124
aI0
aa(lp125
VJPM
p126
aV20080609
p127
aF-1.0
aa(lp128
VJPM
p129
aV20080609
p130
aF-1.0
aa(lp131
VJPM
p132
aV20080630
p133
aF-1.0
aa(lp134
VJPM
p135
aV20080714
p136
aF1.0
aa(lp137
VJPM
p138
aV20080715
p139
aF1.0
aa(lp140
VJPM
p141
aV20080716
p142
aF1.0
aa(lp143
VJPM
p144
aV20080717
p145
aF1.0
aa(lp146
VJPM
p147
aV20080717
p148
aF1.0
aa(lp149
VJPM
p150
aV20080718
p151
aF1.0
aa(lp152
VJPM
p153
aV20080728
p154
aF1.0
aa(lp155
VJPM
p156
aV20080812
p157
aF1.0
aa(lp158
VJPM
p159
aV20080812
p160
aF1.0
aa(lp161
VJPM
p162
aV20080813
p163
aF1.0
aa(lp164
VJPM
p165
aV20080908
p166
aF1.0
aa(lp167
VJPM
p168
aV20080908
p169
aF1.0
aa(lp170
VJPM
p171
aV20080915
p172
aF1.0
aa(lp173
VJPM
p174
aV20080915
p175
aF1.0
aa(lp176
VJPM
p177
aV20080917
p178
aF1.0
aa(lp179
VJPM
p180
aV20080919
p181
aF1.0
aa(lp182
VJPM
p183
aV20080926
p184
aF1.0
aa(lp185
VJPM
p186
aV20080926
p187
aF1.0
aa(lp188
VJPM
p189
aV20080930
p190
aF1.0
aa(lp191
VJPM
p192
aV20081001
p193
aF1.0
aa(lp194
VJPM
p195
aV20081002
p196
aF1.0
aa(lp197
VJPM
p198
aV20081006
p199
aF1.0
aa(lp200
VJPM
p201
aV20081007
p202
aF1.0
aa(lp203
VJPM
p204
aV20081008
p205
aF1.0
aa(lp206
VJPM
p207
aV20081009
p208
aF1.0
aa(lp209
VJPM
p210
aV20081013
p211
aF1.0
aa(lp212
VJPM
p213
aV20081022
p214
aF1.0
aa(lp215
VJPM
p216
aV20081024
p217
aF1.0
aa(lp218
VJPM
p219
aV20081027
p220
aF1.0
aa(lp221
VJPM
p222
aV20081031
p223
aF1.0
aa(lp224
VJPM
p225
aV20081103
p226
aF1.0
aa(lp227
VJPM
p228
aV20081104
p229
aF1.0
aa(lp230
VJPM
p231
aV20081106
p232
aF1.0
aa(lp233
VJPM
p234
aV20081110
p235
aF1.0
aa(lp236
VJPM
p237
aV20081112
p238
aF1.0
aa(lp239
VJPM
p240
aV20081117
p241
aF1.0
aa(lp242
VJPM
p243
aV20081118
p244
aF1.0
aa(lp245
VJPM
p246
aV20081119
p247
aF1.0
aa(lp248
VJPM
p249
aV20081120
p250
aF1.0
aa(lp251
VJPM
p252
aV20081120
p253
aF1.0
aa(lp254
VJPM
p255
aV20081121
p256
aF1.0
aa(lp257
VJPM
p258
aV20081121
p259
aF1.0
aa(lp260
VJPM
p261
aV20081125
p262
aF1.0
aa(lp263
VJPM
p264
aV20081126
p265
aF1.0
aa(lp266
VJPM
p267
aV20081128
p268
aF1.0
aa(lp269
VJPM
p270
aV20081201
p271
aF-1.0
aa(lp272
VJPM
p273
aV20081204
p274
aF-1.0
aa(lp275
VJPM
p276
aV20081205
p277
aF-1.0
aa(lp278
VJPM
p279
aV20081208
p280
aF-1.0
aa(lp281
VJPM
p282
aV20081211
p283
aF-1.0
aa(lp284
VJPM
p285
aV20081212
p286
aF-1.0
aa(lp287
VJPM
p288
aV20081215
p289
aF-1.0
aaa(lp290
(lp291
VAA
p292
aV20080108
p293
aF0.6666666666666666
aa(lp294
VAA
p295
aV20080108
p296
aF0.6666666666666666
aa(lp297
VAA
p298
aV20080109
p299
aF1.0
aa(lp300
VAA
p301
aV20080117
p302
aF1.0
aa(lp303
VAA
p304
aV20080124
p305
aF1.0
aa(lp306
VAA
p307
aV20080129
p308
aF1.0
aa(lp309
VAA
p310
aV20080213
p311
aF-1.0
aa(lp312
VAA
p313
aV20080225
p314
aF-1.0
aa(lp315
VAA
p316
aV20080225
p317
aF-1.0
aa(lp318
VAA
p319
aV20080319
p320
aF-1.0
aa(lp321
VAA
p322
aV20080320
p323
aF-1.0
aa(lp324
VAA
p325
aV20080403
p326
aF-1.0
aa(lp327
VAA
p328
aV20080414
p329
aI0
aa(lp330
VAA
p331
aV20080501
p332
aI0
aa(lp333
VAA
p334
aV20080506
p335
aI0
aa(lp336
VAA
p337
aV20080508
p338
aI0
aa(lp339
VAA
p340
aV20080512
p341
aI0
aa(lp342
VAA
p343
aV20080513
p344
aI0
aa(lp345
VAA
p346
aV20080609
p347
aI0
aa(lp348
VAA
p349
aV20080609
p350
aI0
aa(lp351
VAA
p352
aV20080610
p353
aI0
aa(lp354
VAA
p355
aV20080610
p356
aI0
aa(lp357
VAA
p358
aV20080612
p359
aI0
aa(lp360
VAA
p361
aV20080620
p362
aI0
aa(lp363
VAA
p364
aV20080702
p365
aF-1.0
aa(lp366
VAA
p367
aV20080710
p368
aI0
aa(lp369
VAA
p370
aV20080724
p371
aI0
aa(lp372
VAA
p373
aV20080730
p374
aI0
aa(lp375
VAA
p376
aV20080804
p377
aI0
aa(lp378
VAA
p379
aV20080902
p380
aF-0.6666666666666666
aa(lp381
VAA
p382
aV20080903
p383
aF-0.6666666666666666
aa(lp384
VAA
p385
aV20080903
p386
aF-0.6666666666666666
aa(lp387
VAA
p388
aV20080904
p389
aF-0.6666666666666666
aa(lp390
VAA
p391
aV20080905
p392
aF-0.6666666666666666
aa(lp393
VAA
p394
aV20080917
p395
aI0
aa(lp396
VAA
p397
aV20080926
p398
aI0
aa(lp399
VAA
p400
aV20080929
p401
aI0
aa(lp402
VAA
p403
aV20080929
p404
aI0
aa(lp405
VAA
p406
aV20081001
p407
aI0
aa(lp408
VAA
p409
aV20081002
p410
aI0
aa(lp411
VAA
p412
aV20081003
p413
aI0
aa(lp414
VAA
p415
aV20081006
p416
aI0
aa(lp417
VAA
p418
aV20081007
p419
aI0
aa(lp420
VAA
p421
aV20081008
p422
aI0
aa(lp423
VAA
p424
aV20081008
p425
aI0
aa(lp426
VAA
p427
aV20081009
p428
aI0
aa(lp429
VAA
p430
aV20081010
p431
aI0
aa(lp432
VAA
p433
aV20081015
p434
aI0
aa(lp435
VAA
p436
aV20081017
p437
aI0
aa(lp438
VAA
p439
aV20081022
p440
aF-1.0
aa(lp441
VAA
p442
aV20081023
p443
aF-1.0
aa(lp444
VAA
p445
aV20081024
p446
aF-1.0
aa(lp447
VAA
p448
aV20081027
p449
aF-1.0
aa(lp450
VAA
p451
aV20081028
p452
aF-1.0
aa(lp453
VAA
p454
aV20081029
p455
aF-1.0
aa(lp456
VAA
p457
aV20081030
p458
aF-1.0
aa(lp459
VAA
p460
aV20081031
p461
aF-1.0
aa(lp462
VAA
p463
aV20081104
p464
aF-1.0
aa(lp465
VAA
p466
aV20081106
p467
aF-1.0
aa(lp468
VAA
p469
aV20081112
p470
aF-1.0
aa(lp471
VAA
p472
aV20081117
p473
aF-1.0
aa(lp474
VAA
p475
aV20081118
p476
aF-1.0
aa(lp477
VAA
p478
aV20081119
p479
aF-1.0
aa(lp480
VAA
p481
aV20081120
p482
aF-1.0
aa(lp483
VAA
p484
aV20081120
p485
aF-1.0
aa(lp486
VAA
p487
aV20081124
p488
aF-1.0
aa(lp489
VAA
p490
aV20081125
p491
aF-1.0
aa(lp492
VAA
p493
aV20081126
p494
aF-1.0
aa(lp495
VAA
p496
aV20081128
p497
aI0
aa(lp498
VAA
p499
aV20081201
p500
aI0
aa(lp501
VAA
p502
aV20081203
p503
aI0
aa(lp504
VAA
p505
aV20081204
p506
aI0
aa(lp507
VAA
p508
aV20081205
p509
aI0
aa(lp510
VAA
p511
aV20081205
p512
aI0
aa(lp513
VAA
p514
aV20081208
p515
aI0
aa(lp516
VAA
p517
aV20081209
p518
aI0
aa(lp519
VAA
p520
aV20081210
p521
aF1.0
aa(lp522
VAA
p523
aV20081211
p524
aF1.0
aa(lp525
VAA
p526
aV20081222
p527
aF-1.0
aa(lp528
VAA
p529
aV20081230
p530
aF-1.0
aa(lp531
VAA
p532
aV20081230
p533
aF-1.0
aa(lp534
VAA
p535
aV20081231
p536
aI0
aa(lp537
VAA
p538
aV20081231
p539
aI0
aaa(lp540
(lp541
VDD
p542
aV20080109
p543
aI0
aa(lp544
VDD
p545
aV20080410
p546
aI0
aa(lp547
VDD
p548
aV20080620
p549
aI0
aa(lp550
VDD
p551
aV20080902
p552
aI0
aa(lp553
VDD
p554
aV20080925
p555
aI0
aa(lp556
VDD
p557
aV20080929
p558
aI0
aa(lp559
VDD
p560
aV20081007
p561
aI0
aa(lp562
VDD
p563
aV20081009
p564
aI0
aa(lp565
VDD
p566
aV20081010
p567
aI0
aa(lp568
VDD
p569
aV20081013
p570
aI0
aa(lp571
VDD
p572
aV20081015
p573
aI0
aa(lp574
VDD
p575
aV20081020
p576
aI0
aa(lp577
VDD
p578
aV20081022
p579
aI0
aa(lp580
VDD
p581
aV20081023
p582
aI0
aa(lp583
VDD
p584
aV20081024
p585
aI0
aa(lp586
VDD
p587
aV20081027
p588
aI0
aa(lp589
VDD
p590
aV20081030
p591
aI0
aa(lp592
VDD
p593
aV20081106
p594
aI0
aa(lp595
VDD
p596
aV20081112
p597
aI0
aa(lp598
VDD
p599
aV20081113
p600
aI0
aa(lp601
VDD
p602
aV20081119
p603
aI0
aa(lp604
VDD
p605
aV20081120
p606
aI0
aa(lp607
VDD
p608
aV20081120
p609
aI0
aa(lp610
VDD
p611
aV20081121
p612
aI0
aa(lp613
VDD
p614
aV20081121
p615
aI0
aa(lp616
VDD
p617
aV20081201
p618
aI0
aa(lp619
VDD
p620
aV20081208
p621
aI0
aa(lp622
VDD
p623
aV20081209
p624
aI0
aa(lp625
VDD
p626
aV20081231
p627
aI0
aaa(lp628
(lp629
VMCD
p630
aV20080111
p631
aI0
aa(lp632
VMCD
p633
aV20080128
p634
aI0
aa(lp635
VMCD
p636
aV20080227
p637
aF-0.6666666666666666
aa(lp638
VMCD
p639
aV20080310
p640
aI0
aa(lp641
VMCD
p642
aV20080401
p643
aF-1.0
aa(lp644
VMCD
p645
aV20080603
p646
aI0
aa(lp647
VMCD
p648
aV20080620
p649
aF-1.0
aa(lp650
VMCD
p651
aV20080723
p652
aI0
aa(lp653
VMCD
p654
aV20080805
p655
aF-0.6764705882352942
aa(lp656
VMCD
p657
aV20080808
p658
aI0
aa(lp659
VMCD
p660
aV20080808
p661
aI0
aa(lp662
VMCD
p663
aV20080902
p664
aI0
aa(lp665
VMCD
p666
aV20081006
p667
aF1.0
aa(lp668
VMCD
p669
aV20081007
p670
aF1.0
aa(lp671
VMCD
p672
aV20081008
p673
aF-1.0
aa(lp674
VMCD
p675
aV20081009
p676
aF1.0
aa(lp677
VMCD
p678
aV20081010
p679
aF-1.0
aa(lp680
VMCD
p681
aV20081013
p682
aI0
aa(lp683
VMCD
p684
aV20081204
p685
aI0
aa(lp686
VMCD
p687
aV20081205
p688
aI0
aaa(lp689
(lp690
VMRK
p691
aV20080108
p692
aI0
aa(lp693
VMRK
p694
aV20080117
p695
aI0
aa(lp696
VMRK
p697
aV20080117
p698
aI0
aa(lp699
VMRK
p700
aV20080118
p701
aI0
aa(lp702
VMRK
p703
aV20080122
p704
aF-1.0
aa(lp705
VMRK
p706
aV20080123
p707
aF-1.0
aa(lp708
VMRK
p709
aV20080125
p710
aF1.0
aa(lp711
VMRK
p712
aV20080125
p713
aF1.0
aa(lp714
VMRK
p715
aV20080331
p716
aF-1.0
aa(lp717
VMRK
p718
aV20080331
p719
aF-1.0
aa(lp720
VMRK
p721
aV20080401
p722
aF-1.0
aa(lp723
VMRK
p724
aV20080402
p725
aI0
aa(lp726
VMRK
p727
aV20080429
p728
aF-0.8867924528301887
aa(lp729
VMRK
p730
aV20080429
p731
aF-0.8867924528301887
aa(lp732
VMRK
p733
aV20080627
p734
aF-1.0
aa(lp735
VMRK
p736
aV20080707
p737
aF-1.0
aa(lp738
VMRK
p739
aV20080721
p740
aF-1.0
aa(lp741
VMRK
p742
aV20080722
p743
aI0
aa(lp744
VMRK
p745
aV20080722
p746
aI0
aa(lp747
VMRK
p748
aV20080723
p749
aI0
aa(lp750
VMRK
p751
aV20080917
p752
aF1.0
aa(lp753
VMRK
p754
aV20081007
p755
aI0
aa(lp756
VMRK
p757
aV20081008
p758
aI0
aa(lp759
VMRK
p760
aV20081009
p761
aI0
aa(lp762
VMRK
p763
aV20081010
p764
aF-1.0
aa(lp765
VMRK
p766
aV20081013
p767
aF-1.0
aa(lp768
VMRK
p769
aV20081020
p770
aF-1.0
aa(lp771
VMRK
p772
aV20081024
p773
aF-1.0
aa(lp774
VMRK
p775
aV20081028
p776
aF-0.6666666666666666
aa(lp777
VMRK
p778
aV20081030
p779
aF-1.0
aa(lp780
VMRK
p781
aV20081031
p782
aF-1.0
aa(lp783
VMRK
p784
aV20081106
p785
aF-1.0
aa(lp786
VMRK
p787
aV20081119
p788
aF-1.0
aa(lp789
VMRK
p790
aV20081120
p791
aF-1.0
aa(lp792
VMRK
p793
aV20081219
p794
aF-1.0
aaa(lp795
(lp796
VAXP
p797
aV20080111
p798
aI0
aa(lp799
VAXP
p800
aV20080111
p801
aI0
aa(lp802
VAXP
p803
aV20080114
p804
aF-1.0
aa(lp805
VAXP
p806
aV20080115
p807
aF-1.0
aa(lp808
VAXP
p809
aV20080124
p810
aF-1.0
aa(lp811
VAXP
p812
aV20080229
p813
aI0
aa(lp814
VAXP
p815
aV20080229
p816
aI0
aa(lp817
VAXP
p818
aV20080320
p819
aI0
aa(lp820
VAXP
p821
aV20080324
p822
aF-1.0
aa(lp823
VAXP
p824
aV20080328
p825
aI0
aa(lp826
VAXP
p827
aV20080401
p828
aI0
aa(lp829
VAXP
p830
aV20080425
p831
aI0
aa(lp832
VAXP
p833
aV20080501
p834
aI0
aa(lp835
VAXP
p836
aV20080521
p837
aI0
aa(lp838
VAXP
p839
aV20080603
p840
aI0
aa(lp841
VAXP
p842
aV20080604
p843
aI0
aa(lp844
VAXP
p845
aV20080626
p846
aF-1.0
aa(lp847
VAXP
p848
aV20080627
p849
aF-1.0
aa(lp850
VAXP
p851
aV20080717
p852
aI0
aa(lp853
VAXP
p854
aV20080718
p855
aI0
aa(lp856
VAXP
p857
aV20080722
p858
aF-1.0
aa(lp859
VAXP
p860
aV20080722
p861
aF-1.0
aa(lp862
VAXP
p863
aV20080724
p864
aF-1.0
aa(lp865
VAXP
p866
aV20080908
p867
aI0
aa(lp868
VAXP
p869
aV20080915
p870
aI0
aa(lp871
VAXP
p872
aV20080915
p873
aI0
aa(lp874
VAXP
p875
aV20080917
p876
aF-1.0
aa(lp877
VAXP
p878
aV20080919
p879
aF-1.0
aa(lp880
VAXP
p881
aV20080929
p882
aF-0.9090909090909091
aa(lp883
VAXP
p884
aV20080929
p885
aF-0.9090909090909091
aa(lp886
VAXP
p887
aV20081002
p888
aF-1.0
aa(lp889
VAXP
p890
aV20081003
p891
aF-1.0
aa(lp892
VAXP
p893
aV20081006
p894
aF-1.0
aa(lp895
VAXP
p896
aV20081006
p897
aF-1.0
aa(lp898
VAXP
p899
aV20081007
p900
aI0
aa(lp901
VAXP
p902
aV20081008
p903
aI0
aa(lp904
VAXP
p905
aV20081009
p906
aI0
aa(lp907
VAXP
p908
aV20081010
p909
aF0.6666666666666666
aa(lp910
VAXP
p911
aV20081010
p912
aF0.6666666666666666
aa(lp913
VAXP
p914
aV20081013
p915
aI0
aa(lp916
VAXP
p917
aV20081014
p918
aI0
aa(lp919
VAXP
p920
aV20081016
p921
aI0
aa(lp922
VAXP
p923
aV20081017
p924
aI0
aa(lp925
VAXP
p926
aV20081021
p927
aI0
aa(lp928
VAXP
p929
aV20081027
p930
aI0
aa(lp931
VAXP
p932
aV20081030
p933
aF-1.0
aa(lp934
VAXP
p935
aV20081031
p936
aF-1.0
aa(lp937
VAXP
p938
aV20081103
p939
aF-1.0
aa(lp940
VAXP
p941
aV20081104
p942
aF-1.0
aa(lp943
VAXP
p944
aV20081106
p945
aF-0.7631578947368421
aa(lp946
VAXP
p947
aV20081107
p948
aI0
aa(lp949
VAXP
p950
aV20081110
p951
aF-1.0
aa(lp952
VAXP
p953
aV20081111
p954
aF-1.0
aa(lp955
VAXP
p956
aV20081112
p957
aF-1.0
aa(lp958
VAXP
p959
aV20081112
p960
aF-1.0
aa(lp961
VAXP
p962
aV20081113
p963
aF-1.0
aa(lp964
VAXP
p965
aV20081113
p966
aF-1.0
aa(lp967
VAXP
p968
aV20081114
p969
aF-1.0
aa(lp970
VAXP
p971
aV20081117
p972
aF-1.0
aa(lp973
VAXP
p974
aV20081120
p975
aI0
aa(lp976
VAXP
p977
aV20081124
p978
aF-1.0
aa(lp979
VAXP
p980
aV20081125
p981
aF-1.0
aa(lp982
VAXP
p983
aV20081126
p984
aF-1.0
aa(lp985
VAXP
p986
aV20081128
p987
aF-1.0
aa(lp988
VAXP
p989
aV20081201
p990
aF1.0
aa(lp991
VAXP
p992
aV20081208
p993
aF-1.0
aa(lp994
VAXP
p995
aV20081211
p996
aI0
aa(lp997
VAXP
p998
aV20081212
p999
aF-1.0
aa(lp1000
VAXP
p1001
aV20081215
p1002
aI0
aa(lp1003
VAXP
p1004
aV20081230
p1005
aI0
aaa(lp1006
(lp1007
VXOM
p1008
aV20080501
p1009
aF-1.0
aa(lp1010
VXOM
p1011
aV20080929
p1012
aF-1.0
aa(lp1013
VXOM
p1014
aV20080929
p1015
aF-1.0
aa(lp1016
VXOM
p1017
aV20081009
p1018
aF-0.75
aa(lp1019
VXOM
p1020
aV20081010
p1021
aF-1.0
aa(lp1022
VXOM
p1023
aV20081015
p1024
aI0
aa(lp1025
VXOM
p1026
aV20081020
p1027
aF1.0
aa(lp1028
VXOM
p1029
aV20081022
p1030
aF-0.75
aa(lp1031
VXOM
p1032
aV20081028
p1033
aF1.0
aa(lp1034
VXOM
p1035
aV20081029
p1036
aF-1.0
aa(lp1037
VXOM
p1038
aV20081106
p1039
aI0
aa(lp1040
VXOM
p1041
aV20081120
p1042
aF0.6666666666666666
aa(lp1043
VXOM
p1044
aV20081124
p1045
aF-1.0
aa(lp1046
VXOM
p1047
aV20081126
p1048
aI0
aa(lp1049
VXOM
p1050
aV20081201
p1051
aF-1.0
aa(lp1052
VXOM
p1053
aV20081219
p1054
aF-1.0
aaa(lp1055
(lp1056
VAIG
p1057
aV20080117
p1058
aI0
aa(lp1059
VAIG
p1060
aV20080117
p1061
aI0
aa(lp1062
VAIG
p1063
aV20080118
p1064
aF-0.7555555555555555
aa(lp1065
VAIG
p1066
aV20080118
p1067
aF-0.7555555555555555
aa(lp1068
VAIG
p1069
aV20080211
p1070
aI0
aa(lp1071
VAIG
p1072
aV20080211
p1073
aI0
aa(lp1074
VAIG
p1075
aV20080212
p1076
aI0
aa(lp1077
VAIG
p1078
aV20080229
p1079
aF-1.0
aa(lp1080
VAIG
p1081
aV20080229
p1082
aF-1.0
aa(lp1083
VAIG
p1084
aV20080303
p1085
aF-1.0
aa(lp1086
VAIG
p1087
aV20080304
p1088
aF-1.0
aa(lp1089
VAIG
p1090
aV20080306
p1091
aF-1.0
aa(lp1092
VAIG
p1093
aV20080317
p1094
aF-1.0
aa(lp1095
VAIG
p1096
aV20080320
p1097
aF0.6666666666666666
aa(lp1098
VAIG
p1099
aV20080324
p1100
aF0.6666666666666666
aa(lp1101
VAIG
p1102
aV20080401
p1103
aF0.6666666666666666
aa(lp1104
VAIG
p1105
aV20080418
p1106
aF-1.0
aa(lp1107
VAIG
p1108
aV20080502
p1109
aF-1.0
aa(lp1110
VAIG
p1111
aV20080507
p1112
aF-1.0
aa(lp1113
VAIG
p1114
aV20080508
p1115
aI0
aa(lp1116
VAIG
p1117
aV20080509
p1118
aI0
aa(lp1119
VAIG
p1120
aV20080509
p1121
aI0
aa(lp1122
VAIG
p1123
aV20080512
p1124
aF-1.0
aa(lp1125
VAIG
p1126
aV20080512
p1127
aF-1.0
aa(lp1128
VAIG
p1129
aV20080513
p1130
aF-1.0
aa(lp1131
VAIG
p1132
aV20080513
p1133
aF-1.0
aa(lp1134
VAIG
p1135
aV20080606
p1136
aF-1.0
aa(lp1137
VAIG
p1138
aV20080626
p1139
aF-1.0
aa(lp1140
VAIG
p1141
aV20080630
p1142
aF-1.0
aa(lp1143
VAIG
p1144
aV20080710
p1145
aI0
aa(lp1146
VAIG
p1147
aV20080710
p1148
aI0
aa(lp1149
VAIG
p1150
aV20080711
p1151
aI0
aa(lp1152
VAIG
p1153
aV20080714
p1154
aI0
aa(lp1155
VAIG
p1156
aV20080715
p1157
aI0
aa(lp1158
VAIG
p1159
aV20080717
p1160
aI0
aa(lp1161
VAIG
p1162
aV20080718
p1163
aI0
aa(lp1164
VAIG
p1165
aV20080721
p1166
aF-1.0
aa(lp1167
VAIG
p1168
aV20080722
p1169
aF-1.0
aa(lp1170
VAIG
p1171
aV20080723
p1172
aI0
aa(lp1173
VAIG
p1174
aV20080728
p1175
aF1.0
aa(lp1176
VAIG
p1177
aV20080805
p1178
aI0
aa(lp1179
VAIG
p1180
aV20080806
p1181
aI0
aa(lp1182
VAIG
p1183
aV20080807
p1184
aI0
aa(lp1185
VAIG
p1186
aV20080807
p1187
aI0
aa(lp1188
VAIG
p1189
aV20080808
p1190
aI0
aa(lp1191
VAIG
p1192
aV20080811
p1193
aF-1.0
aa(lp1194
VAIG
p1195
aV20080812
p1196
aF-1.0
aa(lp1197
VAIG
p1198
aV20080813
p1199
aF-1.0
aa(lp1200
VAIG
p1201
aV20080819
p1202
aI0
aa(lp1203
VAIG
p1204
aV20080821
p1205
aI0
aa(lp1206
VAIG
p1207
aV20080825
p1208
aI0
aa(lp1209
VAIG
p1210
aV20080828
p1211
aI0
aa(lp1212
VAIG
p1213
aV20080829
p1214
aI0
aa(lp1215
VAIG
p1216
aV20080909
p1217
aF-1.0
aa(lp1218
VAIG
p1219
aV20080909
p1220
aF-1.0
aa(lp1221
VAIG
p1222
aV20080910
p1223
aF-1.0
aa(lp1224
VAIG
p1225
aV20080911
p1226
aF-1.0
aa(lp1227
VAIG
p1228
aV20080911
p1229
aF-1.0
aa(lp1230
VAIG
p1231
aV20080912
p1232
aF-1.0
aa(lp1233
VAIG
p1234
aV20080912
p1235
aF-1.0
aa(lp1236
VAIG
p1237
aV20080915
p1238
aF-1.0
aa(lp1239
VAIG
p1240
aV20080915
p1241
aF-1.0
aa(lp1242
VAIG
p1243
aV20080916
p1244
aF-1.0
aa(lp1245
VAIG
p1246
aV20080916
p1247
aF-1.0
aa(lp1248
VAIG
p1249
aV20080917
p1250
aF-1.0
aa(lp1251
VAIG
p1252
aV20080918
p1253
aF-1.0
aa(lp1254
VAIG
p1255
aV20080919
p1256
aF-1.0
aa(lp1257
VAIG
p1258
aV20080922
p1259
aI0
aa(lp1260
VAIG
p1261
aV20080923
p1262
aF-1.0
aa(lp1263
VAIG
p1264
aV20080924
p1265
aI0
aa(lp1266
VAIG
p1267
aV20080925
p1268
aF-1.0
aa(lp1269
VAIG
p1270
aV20080926
p1271
aF-0.6666666666666666
aa(lp1272
VAIG
p1273
aV20080929
p1274
aF-1.0
aa(lp1275
VAIG
p1276
aV20080930
p1277
aF-1.0
aa(lp1278
VAIG
p1279
aV20081001
p1280
aF-1.0
aa(lp1281
VAIG
p1282
aV20081002
p1283
aI0
aa(lp1284
VAIG
p1285
aV20081003
p1286
aF-1.0
aa(lp1287
VAIG
p1288
aV20081003
p1289
aF-1.0
aa(lp1290
VAIG
p1291
aV20081007
p1292
aF-1.0
aa(lp1293
VAIG
p1294
aV20081008
p1295
aF-0.6666666666666666
aa(lp1296
VAIG
p1297
aV20081009
p1298
aF-0.6666666666666666
aa(lp1299
VAIG
p1300
aV20081010
p1301
aF-1.0
aa(lp1302
VAIG
p1303
aV20081013
p1304
aF-1.0
aa(lp1305
VAIG
p1306
aV20081014
p1307
aF-0.9333333333333333
aa(lp1308
VAIG
p1309
aV20081017
p1310
aF-1.0
aa(lp1311
VAIG
p1312
aV20081022
p1313
aF-1.0
aa(lp1314
VAIG
p1315
aV20081024
p1316
aF-1.0
aa(lp1317
VAIG
p1318
aV20081027
p1319
aF-1.0
aa(lp1320
VAIG
p1321
aV20081029
p1322
aF-1.0
aa(lp1323
VAIG
p1324
aV20081031
p1325
aF-1.0
aa(lp1326
VAIG
p1327
aV20081103
p1328
aI0
aa(lp1329
VAIG
p1330
aV20081104
p1331
aI0
aa(lp1332
VAIG
p1333
aV20081106
p1334
aI0
aa(lp1335
VAIG
p1336
aV20081110
p1337
aF-1.0
aa(lp1338
VAIG
p1339
aV20081110
p1340
aF-1.0
aa(lp1341
VAIG
p1342
aV20081111
p1343
aF-1.0
aa(lp1344
VAIG
p1345
aV20081117
p1346
aF-1.0
aa(lp1347
VAIG
p1348
aV20081119
p1349
aF-1.0
aa(lp1350
VAIG
p1351
aV20081120
p1352
aF-1.0
aa(lp1353
VAIG
p1354
aV20081121
p1355
aF-1.0
aa(lp1356
VAIG
p1357
aV20081124
p1358
aI0
aa(lp1359
VAIG
p1360
aV20081125
p1361
aF-1.0
aa(lp1362
VAIG
p1363
aV20081126
p1364
aF-1.0
aa(lp1365
VAIG
p1366
aV20081128
p1367
aF-1.0
aa(lp1368
VAIG
p1369
aV20081201
p1370
aF-1.0
aa(lp1371
VAIG
p1372
aV20081203
p1373
aF-1.0
aa(lp1374
VAIG
p1375
aV20081203
p1376
aF-1.0
aa(lp1377
VAIG
p1378
aV20081210
p1379
aF-1.0
aa(lp1380
VAIG
p1381
aV20081211
p1382
aF-1.0
aa(lp1383
VAIG
p1384
aV20081219
p1385
aF-1.0
aa(lp1386
VAIG
p1387
aV20081223
p1388
aF1.0
aaa(lp1389
(lp1390
VGE
p1391
aV20080320
p1392
aF-1.0
aa(lp1393
VGE
p1394
aV20080411
p1395
aF-1.0
aa(lp1396
VGE
p1397
aV20080411
p1398
aF-1.0
aa(lp1399
VGE
p1400
aV20080414
p1401
aI0
aa(lp1402
VGE
p1403
aV20080415
p1404
aF-1.0
aa(lp1405
VGE
p1406
aV20080912
p1407
aF-1.0
aa(lp1408
VGE
p1409
aV20080915
p1410
aI0
aa(lp1411
VGE
p1412
aV20080915
p1413
aI0
aa(lp1414
VGE
p1415
aV20080916
p1416
aF1.0
aa(lp1417
VGE
p1418
aV20080917
p1419
aF-1.0
aa(lp1420
VGE
p1421
aV20080919
p1422
aF-1.0
aa(lp1423
VGE
p1424
aV20080929
p1425
aF-1.0
aa(lp1426
VGE
p1427
aV20081001
p1428
aF-1.0
aa(lp1429
VGE
p1430
aV20081002
p1431
aF-1.0
aa(lp1432
VGE
p1433
aV20081002
p1434
aF-1.0
aa(lp1435
VGE
p1436
aV20081003
p1437
aF-1.0
aa(lp1438
VGE
p1439
aV20081006
p1440
aF-1.0
aa(lp1441
VGE
p1442
aV20081007
p1443
aI0
aa(lp1444
VGE
p1445
aV20081009
p1446
aF1.0
aa(lp1447
VGE
p1448
aV20081010
p1449
aI0
aa(lp1450
VGE
p1451
aV20081015
p1452
aF-1.0
aa(lp1453
VGE
p1454
aV20081024
p1455
aI0
aa(lp1456
VGE
p1457
aV20081027
p1458
aF-1.0
aa(lp1459
VGE
p1460
aV20081104
p1461
aI0
aa(lp1462
VGE
p1463
aV20081106
p1464
aI0
aa(lp1465
VGE
p1466
aV20081112
p1467
aF1.0
aa(lp1468
VGE
p1469
aV20081112
p1470
aF1.0
aa(lp1471
VGE
p1472
aV20081113
p1473
aI0
aa(lp1474
VGE
p1475
aV20081114
p1476
aF-1.0
aa(lp1477
VGE
p1478
aV20081119
p1479
aF-1.0
aa(lp1480
VGE
p1481
aV20081120
p1482
aF-1.0
aa(lp1483
VGE
p1484
aV20081120
p1485
aF-1.0
aa(lp1486
VGE
p1487
aV20081124
p1488
aF-1.0
aa(lp1489
VGE
p1490
aV20081125
p1491
aI0
aa(lp1492
VGE
p1493
aV20081126
p1494
aF-1.0
aa(lp1495
VGE
p1496
aV20081128
p1497
aF1.0
aa(lp1498
VGE
p1499
aV20081202
p1500
aF-1.0
aa(lp1501
VGE
p1502
aV20081202
p1503
aF-1.0
aa(lp1504
VGE
p1505
aV20081203
p1506
aF-1.0
aa(lp1507
VGE
p1508
aV20081218
p1509
aF-1.0
aa(lp1510
VGE
p1511
aV20081218
p1512
aF-1.0
aaa(lp1513
(lp1514
VMSFT
p1515
aV20080116
p1516
aF1.0
aa(lp1517
VMSFT
p1518
aV20080201
p1519
aI0
aa(lp1520
VMSFT
p1521
aV20080201
p1522
aI0
aa(lp1523
VMSFT
p1524
aV20080205
p1525
aF-1.0
aa(lp1526
VMSFT
p1527
aV20080206
p1528
aI0
aa(lp1529
VMSFT
p1530
aV20080425
p1531
aF-0.9454545454545454
aa(lp1532
VMSFT
p1533
aV20080716
p1534
aF-0.6666666666666666
aa(lp1535
VMSFT
p1536
aV20080718
p1537
aF1.0
aa(lp1538
VMSFT
p1539
aV20080917
p1540
aI0
aa(lp1541
VMSFT
p1542
aV20081007
p1543
aF-1.0
aa(lp1544
VMSFT
p1545
aV20081008
p1546
aI0
aa(lp1547
VMSFT
p1548
aV20081009
p1549
aI0
aa(lp1550
VMSFT
p1551
aV20081010
p1552
aF-1.0
aa(lp1553
VMSFT
p1554
aV20081013
p1555
aI0
aa(lp1556
VMSFT
p1557
aV20081022
p1558
aF1.0
aa(lp1559
VMSFT
p1560
aV20081106
p1561
aF1.0
aa(lp1562
VMSFT
p1563
aV20081113
p1564
aF-1.0
aa(lp1565
VMSFT
p1566
aV20081117
p1567
aF-1.0
aa(lp1568
VMSFT
p1569
aV20081119
p1570
aI0
aa(lp1571
VMSFT
p1572
aV20081120
p1573
aF-0.6666666666666666
aa(lp1574
VMSFT
p1575
aV20081124
p1576
aF-1.0
aa(lp1577
VMSFT
p1578
aV20081201
p1579
aF-1.0
aa(lp1580
VMSFT
p1581
aV20081208
p1582
aF-1.0
aaa(lp1583
a(lp1584
a(lp1585
(lp1586
VPFE
p1587
aV20080417
p1588
aI0
aa(lp1589
VPFE
p1590
aV20080618
p1591
aF-1.0
aa(lp1592
VPFE
p1593
aV20080916
p1594
aF1.0
aa(lp1595
VPFE
p1596
aV20081007
p1597
aI0
aa(lp1598
VPFE
p1599
aV20081008
p1600
aI0
aa(lp1601
VPFE
p1602
aV20081009
p1603
aI0
aa(lp1604
VPFE
p1605
aV20081010
p1606
aI0
aa(lp1607
VPFE
p1608
aV20081028
p1609
aI0
aa(lp1610
VPFE
p1611
aV20081106
p1612
aF-0.8
aa(lp1613
VPFE
p1614
aV20081120
p1615
aF-1.0
aa(lp1616
VPFE
p1617
aV20081120
p1618
aF-1.0
aa(lp1619
VPFE
p1620
aV20081203
p1621
aF-1.0
aaa(lp1622
(lp1623
VBAC
p1624
aV20080111
p1625
aF-1.0
aa(lp1626
VBAC
p1627
aV20080122
p1628
aI0
aa(lp1629
VBAC
p1630
aV20080123
p1631
aF-1.0
aa(lp1632
VBAC
p1633
aV20080131
p1634
aF-1.0
aa(lp1635
VBAC
p1636
aV20080229
p1637
aF-1.0
aa(lp1638
VBAC
p1639
aV20080318
p1640
aF-1.0
aa(lp1641
VBAC
p1642
aV20080320
p1643
aF-1.0
aa(lp1644
VBAC
p1645
aV20080324
p1646
aI0
aa(lp1647
VBAC
p1648
aV20080327
p1649
aF-1.0
aa(lp1650
VBAC
p1651
aV20080606
p1652
aF-1.0
aa(lp1653
VBAC
p1654
aV20080609
p1655
aI0
aa(lp1656
VBAC
p1657
aV20080619
p1658
aF-1.0
aa(lp1659
VBAC
p1660
aV20080620
p1661
aF-1.0
aa(lp1662
VBAC
p1663
aV20080623
p1664
aF-1.0
aa(lp1665
VBAC
p1666
aV20080626
p1667
aI0
aa(lp1668
VBAC
p1669
aV20080630
p1670
aI0
aa(lp1671
VBAC
p1672
aV20080702
p1673
aI0
aa(lp1674
VBAC
p1675
aV20080707
p1676
aF-1.0
aa(lp1677
VBAC
p1678
aV20080714
p1679
aF-1.0
aa(lp1680
VBAC
p1681
aV20080715
p1682
aF1.0
aa(lp1683
VBAC
p1684
aV20080716
p1685
aF1.0
aa(lp1686
VBAC
p1687
aV20080717
p1688
aI0
aa(lp1689
VBAC
p1690
aV20080718
p1691
aF1.0
aa(lp1692
VBAC
p1693
aV20080721
p1694
aF-1.0
aa(lp1695
VBAC
p1696
aV20080722
p1697
aF-1.0
aa(lp1698
VBAC
p1699
aV20080723
p1700
aF1.0
aa(lp1701
VBAC
p1702
aV20080728
p1703
aF-1.0
aa(lp1704
VBAC
p1705
aV20080730
p1706
aF1.0
aa(lp1707
VBAC
p1708
aV20080731
p1709
aF-1.0
aa(lp1710
VBAC
p1711
aV20080813
p1712
aF-1.0
aa(lp1713
VBAC
p1714
aV20080828
p1715
aI0
aa(lp1716
VBAC
p1717
aV20080902
p1718
aF-1.0
aa(lp1719
VBAC
p1720
aV20080908
p1721
aF-1.0
aa(lp1722
VBAC
p1723
aV20080908
p1724
aF-1.0
aa(lp1725
VBAC
p1726
aV20080915
p1727
aI0
aa(lp1728
VBAC
p1729
aV20080915
p1730
aI0
aa(lp1731
VBAC
p1732
aV20080917
p1733
aI0
aa(lp1734
VBAC
p1735
aV20080919
p1736
aF-0.75
aa(lp1737
VBAC
p1738
aV20080922
p1739
aF-1.0
aa(lp1740
VBAC
p1741
aV20080926
p1742
aF-1.0
aa(lp1743
VBAC
p1744
aV20080929
p1745
aF-1.0
aa(lp1746
VBAC
p1747
aV20080929
p1748
aF-1.0
aa(lp1749
VBAC
p1750
aV20081001
p1751
aF-1.0
aa(lp1752
VBAC
p1753
aV20081006
p1754
aF-1.0
aa(lp1755
VBAC
p1756
aV20081007
p1757
aI0
aa(lp1758
VBAC
p1759
aV20081007
p1760
aI0
aa(lp1761
VBAC
p1762
aV20081008
p1763
aI0
aa(lp1764
VBAC
p1765
aV20081008
p1766
aI0
aa(lp1767
VBAC
p1768
aV20081009
p1769
aI0
aa(lp1770
VBAC
p1771
aV20081010
p1772
aI0
aa(lp1773
VBAC
p1774
aV20081014
p1775
aF-0.75
aa(lp1776
VBAC
p1777
aV20081024
p1778
aI0
aa(lp1779
VBAC
p1780
aV20081027
p1781
aI0
aa(lp1782
VBAC
p1783
aV20081031
p1784
aI0
aa(lp1785
VBAC
p1786
aV20081105
p1787
aI0
aa(lp1788
VBAC
p1789
aV20081106
p1790
aF-1.0
aa(lp1791
VBAC
p1792
aV20081107
p1793
aI0
aa(lp1794
VBAC
p1795
aV20081110
p1796
aI0
aa(lp1797
VBAC
p1798
aV20081111
p1799
aF-1.0
aa(lp1800
VBAC
p1801
aV20081112
p1802
aF-1.0
aa(lp1803
VBAC
p1804
aV20081113
p1805
aI0
aa(lp1806
VBAC
p1807
aV20081113
p1808
aI0
aa(lp1809
VBAC
p1810
aV20081114
p1811
aI0
aa(lp1812
VBAC
p1813
aV20081117
p1814
aF-1.0
aa(lp1815
VBAC
p1816
aV20081118
p1817
aI0
aa(lp1818
VBAC
p1819
aV20081119
p1820
aF-1.0
aa(lp1821
VBAC
p1822
aV20081120
p1823
aF-1.0
aa(lp1824
VBAC
p1825
aV20081121
p1826
aI0
aa(lp1827
VBAC
p1828
aV20081124
p1829
aI0
aa(lp1830
VBAC
p1831
aV20081125
p1832
aI0
aa(lp1833
VBAC
p1834
aV20081126
p1835
aI0
aa(lp1836
VBAC
p1837
aV20081128
p1838
aF-1.0
aa(lp1839
VBAC
p1840
aV20081201
p1841
aF-1.0
aa(lp1842
VBAC
p1843
aV20081205
p1844
aF-1.0
aa(lp1845
VBAC
p1846
aV20081208
p1847
aF-1.0
aa(lp1848
VBAC
p1849
aV20081209
p1850
aF1.0
aa(lp1851
VBAC
p1852
aV20081211
p1853
aI0
aa(lp1854
VBAC
p1855
aV20081212
p1856
aF-1.0
aa(lp1857
VBAC
p1858
aV20081215
p1859
aI0
aa(lp1860
VBAC
p1861
aV20081216
p1862
aF-1.0
aa(lp1863
VBAC
p1864
aV20081223
p1865
aF-1.0
aa(lp1866
VBAC
p1867
aV20081231
p1868
aF-1.0
aaa(lp1869
(lp1870
VHPQ
p1871
aV20080108
p1872
aF-1.0
aa(lp1873
VHPQ
p1874
aV20080108
p1875
aF-1.0
aa(lp1876
VHPQ
p1877
aV20080207
p1878
aF-1.0
aa(lp1879
VHPQ
p1880
aV20080207
p1881
aF-1.0
aa(lp1882
VHPQ
p1883
aV20080220
p1884
aI0
aa(lp1885
VHPQ
p1886
aV20080220
p1887
aI0
aa(lp1888
VHPQ
p1889
aV20080331
p1890
aI0
aa(lp1891
VHPQ
p1892
aV20080512
p1893
aF-1.0
aa(lp1894
VHPQ
p1895
aV20080513
p1896
aF-1.0
aa(lp1897
VHPQ
p1898
aV20080513
p1899
aF-1.0
aa(lp1900
VHPQ
p1901
aV20080818
p1902
aI0
aa(lp1903
VHPQ
p1904
aV20080819
p1905
aF-1.0
aa(lp1906
VHPQ
p1907
aV20080820
p1908
aF-1.0
aa(lp1909
VHPQ
p1910
aV20080916
p1911
aI0
aa(lp1912
VHPQ
p1913
aV20081006
p1914
aF-1.0
aa(lp1915
VHPQ
p1916
aV20081007
p1917
aI0
aa(lp1918
VHPQ
p1919
aV20081010
p1920
aF1.0
aa(lp1921
VHPQ
p1922
aV20081013
p1923
aF-0.75
aa(lp1924
VHPQ
p1925
aV20081022
p1926
aI0
aa(lp1927
VHPQ
p1928
aV20081023
p1929
aF-0.6666666666666666
aa(lp1930
VHPQ
p1931
aV20081024
p1932
aF0.6666666666666666
aa(lp1933
VHPQ
p1934
aV20081027
p1935
aF-1.0
aa(lp1936
VHPQ
p1937
aV20081028
p1938
aF-1.0
aa(lp1939
VHPQ
p1940
aV20081029
p1941
aF-1.0
aa(lp1942
VHPQ
p1943
aV20081030
p1944
aI0
aa(lp1945
VHPQ
p1946
aV20081031
p1947
aF1.0
aa(lp1948
VHPQ
p1949
aV20081106
p1950
aF-1.0
aa(lp1951
VHPQ
p1952
aV20081112
p1953
aF-1.0
aa(lp1954
VHPQ
p1955
aV20081113
p1956
aF-1.0
aa(lp1957
VHPQ
p1958
aV20081114
p1959
aI0
aa(lp1960
VHPQ
p1961
aV20081117
p1962
aI0
aa(lp1963
VHPQ
p1964
aV20081118
p1965
aF0.6666666666666666
aa(lp1966
VHPQ
p1967
aV20081118
p1968
aF0.6666666666666666
aa(lp1969
VHPQ
p1970
aV20081121
p1971
aF-1.0
aa(lp1972
VHPQ
p1973
aV20081124
p1974
aI0
aaa(lp1975
(lp1976
VPG
p1977
aV20080416
p1978
aI0
aa(lp1979
VPG
p1980
aV20080620
p1981
aI0
aa(lp1982
VPG
p1983
aV20080627
p1984
aI0
aa(lp1985
VPG
p1986
aV20081009
p1987
aI0
aa(lp1988
VPG
p1989
aV20081010
p1990
aI0
aa(lp1991
VPG
p1992
aV20081022
p1993
aI0
aa(lp1994
VPG
p1995
aV20081028
p1996
aI0
aa(lp1997
VPG
p1998
aV20081113
p1999
aI0
aaa(lp2000
(lp2001
VBA
p2002
aV20080108
p2003
aI0
aa(lp2004
VBA
p2005
aV20080115
p2006
aI0
aa(lp2007
VBA
p2008
aV20080311
p2009
aF-1.0
aa(lp2010
VBA
p2011
aV20080409
p2012
aF-1.0
aa(lp2013
VBA
p2014
aV20080423
p2015
aF-1.0
aa(lp2016
VBA
p2017
aV20080603
p2018
aF-1.0
aa(lp2019
VBA
p2020
aV20080606
p2021
aI0
aa(lp2022
VBA
p2023
aV20080606
p2024
aI0
aa(lp2025
VBA
p2026
aV20080618
p2027
aF1.0
aa(lp2028
VBA
p2029
aV20080625
p2030
aF-1.0
aa(lp2031
VBA
p2032
aV20080625
p2033
aF-1.0
aa(lp2034
VBA
p2035
aV20080626
p2036
aF-1.0
aa(lp2037
VBA
p2038
aV20080627
p2039
aI0
aa(lp2040
VBA
p2041
aV20080724
p2042
aI0
aa(lp2043
VBA
p2044
aV20080724
p2045
aI0
aa(lp2046
VBA
p2047
aV20080904
p2048
aF-1.0
aa(lp2049
VBA
p2050
aV20080917
p2051
aF-1.0
aa(lp2052
VBA
p2053
aV20080917
p2054
aF-1.0
aa(lp2055
VBA
p2056
aV20081006
p2057
aI0
aa(lp2058
VBA
p2059
aV20081007
p2060
aI0
aa(lp2061
VBA
p2062
aV20081008
p2063
aI0
aa(lp2064
VBA
p2065
aV20081009
p2066
aI0
aa(lp2067
VBA
p2068
aV20081010
p2069
aF-1.0
aa(lp2070
VBA
p2071
aV20081027
p2072
aF-1.0
aa(lp2073
VBA
p2074
aV20081028
p2075
aF-1.0
aa(lp2076
VBA
p2077
aV20081029
p2078
aF-1.0
aa(lp2079
VBA
p2080
aV20081030
p2081
aF-1.0
aa(lp2082
VBA
p2083
aV20081031
p2084
aF-1.0
aa(lp2085
VBA
p2086
aV20081106
p2087
aF-0.7631578947368421
aa(lp2088
VBA
p2089
aV20081107
p2090
aF-1.0
aa(lp2091
VBA
p2092
aV20081111
p2093
aI0
aa(lp2094
VBA
p2095
aV20081112
p2096
aF-0.5568181818181818
aa(lp2097
VBA
p2098
aV20081113
p2099
aI0
aa(lp2100
VBA
p2101
aV20081114
p2102
aI0
aa(lp2103
VBA
p2104
aV20081119
p2105
aI0
aa(lp2106
VBA
p2107
aV20081120
p2108
aI0
aa(lp2109
VBA
p2110
aV20081208
p2111
aI0
aaa(lp2112
(lp2113
VHD
p2114
aV20080122
p2115
aI0
aa(lp2116
VHD
p2117
aV20080122
p2118
aI0
aa(lp2119
VHD
p2120
aV20080123
p2121
aI0
aa(lp2122
VHD
p2123
aV20080124
p2124
aI0
aa(lp2125
VHD
p2126
aV20080205
p2127
aI0
aa(lp2128
VHD
p2129
aV20080206
p2130
aI0
aa(lp2131
VHD
p2132
aV20080226
p2133
aF1.0
aa(lp2134
VHD
p2135
aV20080229
p2136
aI0
aa(lp2137
VHD
p2138
aV20080320
p2139
aF1.0
aa(lp2140
VHD
p2141
aV20080324
p2142
aI0
aa(lp2143
VHD
p2144
aV20080501
p2145
aI0
aa(lp2146
VHD
p2147
aV20080520
p2148
aF1.0
aa(lp2149
VHD
p2150
aV20080521
p2151
aF1.0
aa(lp2152
VHD
p2153
aV20080623
p2154
aI0
aa(lp2155
VHD
p2156
aV20080717
p2157
aF-1.0
aa(lp2158
VHD
p2159
aV20080723
p2160
aF-1.0
aa(lp2161
VHD
p2162
aV20080808
p2163
aI0
aa(lp2164
VHD
p2165
aV20080808
p2166
aI0
aa(lp2167
VHD
p2168
aV20080811
p2169
aF1.0
aa(lp2170
VHD
p2171
aV20080811
p2172
aF1.0
aa(lp2173
VHD
p2174
aV20080812
p2175
aI0
aa(lp2176
VHD
p2177
aV20080902
p2178
aF1.0
aa(lp2179
VHD
p2180
aV20080903
p2181
aF1.0
aa(lp2182
VHD
p2183
aV20080903
p2184
aF1.0
aa(lp2185
VHD
p2186
aV20080917
p2187
aI0
aa(lp2188
VHD
p2189
aV20081003
p2190
aI0
aa(lp2191
VHD
p2192
aV20081006
p2193
aI0
aa(lp2194
VHD
p2195
aV20081007
p2196
aI0
aa(lp2197
VHD
p2198
aV20081008
p2199
aI0
aa(lp2200
VHD
p2201
aV20081009
p2202
aI0
aa(lp2203
VHD
p2204
aV20081010
p2205
aI0
aa(lp2206
VHD
p2207
aV20081024
p2208
aI0
aa(lp2209
VHD
p2210
aV20081028
p2211
aI0
aa(lp2212
VHD
p2213
aV20081029
p2214
aF1.0
aa(lp2215
VHD
p2216
aV20081030
p2217
aF1.0
aa(lp2218
VHD
p2219
aV20081031
p2220
aI0
aa(lp2221
VHD
p2222
aV20081106
p2223
aF1.0
aa(lp2224
VHD
p2225
aV20081113
p2226
aI0
aa(lp2227
VHD
p2228
aV20081120
p2229
aF1.0
aa(lp2230
VHD
p2231
aV20081124
p2232
aI0
aa(lp2233
VHD
p2234
aV20081125
p2235
aI0
aa(lp2236
VHD
p2237
aV20081126
p2238
aF1.0
aa(lp2239
VHD
p2240
aV20081128
p2241
aI0
aa(lp2242
VHD
p2243
aV20081205
p2244
aI0
aa(lp2245
VHD
p2246
aV20081230
p2247
aI0
aa(lp2248
VHD
p2249
aV20081231
p2250
aI0
aaa(lp2251
(lp2252
VUTX
p2253
aV20080303
p2254
aF-1.0
aa(lp2255
VUTX
p2256
aV20080411
p2257
aF-1.0
aa(lp2258
VUTX
p2259
aV20080606
p2260
aF-1.0
aa(lp2261
VUTX
p2262
aV20080620
p2263
aI0
aa(lp2264
VUTX
p2265
aV20080625
p2266
aI0
aa(lp2267
VUTX
p2268
aV20080626
p2269
aI0
aa(lp2270
VUTX
p2271
aV20080626
p2272
aI0
aa(lp2273
VUTX
p2274
aV20080627
p2275
aI0
aa(lp2276
VUTX
p2277
aV20080717
p2278
aI0
aa(lp2279
VUTX
p2280
aV20080717
p2281
aI0
aa(lp2282
VUTX
p2283
aV20080904
p2284
aI0
aa(lp2285
VUTX
p2286
aV20081002
p2287
aI0
aa(lp2288
VUTX
p2289
aV20081006
p2290
aI0
aa(lp2291
VUTX
p2292
aV20081007
p2293
aI0
aa(lp2294
VUTX
p2295
aV20081008
p2296
aI0
aa(lp2297
VUTX
p2298
aV20081009
p2299
aI0
aa(lp2300
VUTX
p2301
aV20081013
p2302
aI0
aa(lp2303
VUTX
p2304
aV20081027
p2305
aF-0.7
aa(lp2306
VUTX
p2307
aV20081028
p2308
aF-0.7
aa(lp2309
VUTX
p2310
aV20081029
p2311
aF-0.7
aa(lp2312
VUTX
p2313
aV20081030
p2314
aF-0.7
aa(lp2315
VUTX
p2316
aV20081031
p2317
aF-0.7
aa(lp2318
VUTX
p2319
aV20081104
p2320
aF-0.7
aa(lp2321
VUTX
p2322
aV20081106
p2323
aF-0.7
aa(lp2324
VUTX
p2325
aV20081113
p2326
aF-0.7
aa(lp2327
VUTX
p2328
aV20081119
p2329
aF-0.7
aa(lp2330
VUTX
p2331
aV20081120
p2332
aF-0.7
aa(lp2333
VUTX
p2334
aV20081120
p2335
aF-0.7
aa(lp2336
VUTX
p2337
aV20081216
p2338
aF-0.7
aaa(lp2339
(lp2340
VCAT
p2341
aV20080312
p2342
aF-0.7
aa(lp2343
VCAT
p2344
aV20080312
p2345
aF-0.7
aa(lp2346
VCAT
p2347
aV20080411
p2348
aF1.0
aa(lp2349
VCAT
p2350
aV20080418
p2351
aI0
aa(lp2352
VCAT
p2353
aV20080418
p2354
aI0
aa(lp2355
VCAT
p2356
aV20080620
p2357
aI0
aa(lp2358
VCAT
p2359
aV20080624
p2360
aI0
aa(lp2361
VCAT
p2362
aV20080904
p2363
aF-1.0
aa(lp2364
VCAT
p2365
aV20080904
p2366
aF-1.0
aa(lp2367
VCAT
p2368
aV20081001
p2369
aI0
aa(lp2370
VCAT
p2371
aV20081002
p2372
aI0
aa(lp2373
VCAT
p2374
aV20081003
p2375
aI0
aa(lp2376
VCAT
p2377
aV20081006
p2378
aI0
aa(lp2379
VCAT
p2380
aV20081007
p2381
aI0
aa(lp2382
VCAT
p2383
aV20081009
p2384
aI0
aa(lp2385
VCAT
p2386
aV20081010
p2387
aI0
aa(lp2388
VCAT
p2389
aV20081013
p2390
aI0
aa(lp2391
VCAT
p2392
aV20081015
p2393
aI0
aa(lp2394
VCAT
p2395
aV20081016
p2396
aI0
aa(lp2397
VCAT
p2398
aV20081017
p2399
aF-0.7142857142857143
aa(lp2400
VCAT
p2401
aV20081022
p2402
aF-0.7142857142857143
aa(lp2403
VCAT
p2404
aV20081023
p2405
aF-0.7142857142857143
aa(lp2406
VCAT
p2407
aV20081024
p2408
aF-0.7142857142857143
aa(lp2409
VCAT
p2410
aV20081027
p2411
aF-1.0
aa(lp2412
VCAT
p2413
aV20081030
p2414
aF-1.0
aa(lp2415
VCAT
p2416
aV20081031
p2417
aF-1.0
aa(lp2418
VCAT
p2419
aV20081103
p2420
aF-1.0
aa(lp2421
VCAT
p2422
aV20081104
p2423
aF-1.0
aa(lp2424
VCAT
p2425
aV20081112
p2426
aF-1.0
aa(lp2427
VCAT
p2428
aV20081113
p2429
aF1.0
aa(lp2430
VCAT
p2431
aV20081119
p2432
aF1.0
aa(lp2433
VCAT
p2434
aV20081120
p2435
aF1.0
aa(lp2436
VCAT
p2437
aV20081120
p2438
aF1.0
aa(lp2439
VCAT
p2440
aV20081125
p2441
aF1.0
aa(lp2442
VCAT
p2443
aV20081126
p2444
aF1.0
aa(lp2445
VCAT
p2446
aV20081128
p2447
aF1.0
aa(lp2448
VCAT
p2449
aV20081208
p2450
aF1.0
aa(lp2451
VCAT
p2452
aV20081208
p2453
aF1.0
aa(lp2454
VCAT
p2455
aV20081209
p2456
aF1.0
aa(lp2457
VCAT
p2458
aV20081210
p2459
aF1.0
aaa(lp2460
(lp2461
VINTC
p2462
aV20080108
p2463
aF-1.0
aa(lp2464
VINTC
p2465
aV20080116
p2466
aF-1.0
aa(lp2467
VINTC
p2468
aV20080116
p2469
aF-1.0
aa(lp2470
VINTC
p2471
aV20080117
p2472
aF-1.0
aa(lp2473
VINTC
p2474
aV20080118
p2475
aI0
aa(lp2476
VINTC
p2477
aV20080122
p2478
aF0.75
aa(lp2479
VINTC
p2480
aV20080124
p2481
aF-1.0
aa(lp2482
VINTC
p2483
aV20080222
p2484
aI0
aa(lp2485
VINTC
p2486
aV20080515
p2487
aF-1.0
aa(lp2488
VINTC
p2489
aV20080710
p2490
aF-0.8
aa(lp2491
VINTC
p2492
aV20080807
p2493
aF-1.0
aa(lp2494
VINTC
p2495
aV20080903
p2496
aF-1.0
aa(lp2497
VINTC
p2498
aV20080903
p2499
aF-1.0
aa(lp2500
VINTC
p2501
aV20080904
p2502
aF-0.6875
aa(lp2503
VINTC
p2504
aV20080904
p2505
aF-0.6875
aa(lp2506
VINTC
p2507
aV20080917
p2508
aF-1.0
aa(lp2509
VINTC
p2510
aV20080929
p2511
aF-0.6
aa(lp2512
VINTC
p2513
aV20081002
p2514
aF1.0
aa(lp2515
VINTC
p2516
aV20081007
p2517
aF-1.0
aa(lp2518
VINTC
p2519
aV20081009
p2520
aF-1.0
aa(lp2521
VINTC
p2522
aV20081010
p2523
aF-0.631578947368421
aa(lp2524
VINTC
p2525
aV20081013
p2526
aI0
aa(lp2527
VINTC
p2528
aV20081022
p2529
aI0
aa(lp2530
VINTC
p2531
aV20081028
p2532
aF-0.75
aa(lp2533
VINTC
p2534
aV20081030
p2535
aF-1.0
aa(lp2536
VINTC
p2537
aV20081106
p2538
aF-1.0
aa(lp2539
VINTC
p2540
aV20081113
p2541
aF-0.75
aa(lp2542
VINTC
p2543
aV20081119
p2544
aF-1.0
aa(lp2545
VINTC
p2546
aV20081124
p2547
aI0
aa(lp2548
VINTC
p2549
aV20081126
p2550
aI0
aa(lp2551
VINTC
p2552
aV20081201
p2553
aF-1.0
aa(lp2554
VINTC
p2555
aV20081209
p2556
aF-0.6190476190476191
aa(lp2557
VINTC
p2558
aV20081216
p2559
aF-1.0
aaa(lp2560
(lp2561
VVZ
p2562
aV20080108
p2563
aI0
aa(lp2564
VVZ
p2565
aV20080118
p2566
aF1.0
aa(lp2567
VVZ
p2568
aV20080118
p2569
aF1.0
aa(lp2570
VVZ
p2571
aV20080122
p2572
aF-1.0
aa(lp2573
VVZ
p2574
aV20080219
p2575
aF-0.6666666666666666
aa(lp2576
VVZ
p2577
aV20080219
p2578
aF-0.6666666666666666
aa(lp2579
VVZ
p2580
aV20080220
p2581
aF-1.0
aa(lp2582
VVZ
p2583
aV20080428
p2584
aI0
aa(lp2585
VVZ
p2586
aV20080604
p2587
aF1.0
aa(lp2588
VVZ
p2589
aV20080605
p2590
aF1.0
aa(lp2591
VVZ
p2592
aV20080917
p2593
aF-1.0
aa(lp2594
VVZ
p2595
aV20080929
p2596
aI0
aa(lp2597
VVZ
p2598
aV20081007
p2599
aI0
aa(lp2600
VVZ
p2601
aV20081008
p2602
aI0
aa(lp2603
VVZ
p2604
aV20081009
p2605
aI0
aa(lp2606
VVZ
p2607
aV20081022
p2608
aF-1.0
aa(lp2609
VVZ
p2610
aV20081024
p2611
aF-1.0
aa(lp2612
VVZ
p2613
aV20081028
p2614
aF1.0
aa(lp2615
VVZ
p2616
aV20081029
p2617
aF1.0
aa(lp2618
VVZ
p2619
aV20081104
p2620
aI0
aa(lp2621
VVZ
p2622
aV20081119
p2623
aI0
aa(lp2624
VVZ
p2625
aV20081120
p2626
aI0
aa(lp2627
VVZ
p2628
aV20081124
p2629
aI0
aa(lp2630
VVZ
p2631
aV20081125
p2632
aI0
aa(lp2633
VVZ
p2634
aV20081126
p2635
aI0
aa(lp2636
VVZ
p2637
aV20081128
p2638
aF1.0
aa(lp2639
VVZ
p2640
aV20081231
p2641
aF-0.813953488372093
aaa(lp2642
(lp2643
VCVX
p2644
aV20080117
p2645
aF1.0
aa(lp2646
VCVX
p2647
aV20080215
p2648
aF1.0
aa(lp2649
VCVX
p2650
aV20080716
p2651
aI0
aa(lp2652
VCVX
p2653
aV20080919
p2654
aF-1.0
aa(lp2655
VCVX
p2656
aV20080929
p2657
aI0
aa(lp2658
VCVX
p2659
aV20080929
p2660
aI0
aa(lp2661
VCVX
p2662
aV20081007
p2663
aF-1.0
aa(lp2664
VCVX
p2665
aV20081009
p2666
aF-1.0
aa(lp2667
VCVX
p2668
aV20081010
p2669
aF-1.0
aa(lp2670
VCVX
p2671
aV20081010
p2672
aF-1.0
aa(lp2673
VCVX
p2674
aV20081015
p2675
aI0
aa(lp2676
VCVX
p2677
aV20081020
p2678
aF1.0
aa(lp2679
VCVX
p2680
aV20081028
p2681
aF1.0
aa(lp2682
VCVX
p2683
aV20081029
p2684
aI0
aa(lp2685
VCVX
p2686
aV20081030
p2687
aI0
aa(lp2688
VCVX
p2689
aV20081031
p2690
aF1.0
aa(lp2691
VCVX
p2692
aV20081104
p2693
aF-1.0
aa(lp2694
VCVX
p2695
aV20081106
p2696
aI0
aa(lp2697
VCVX
p2698
aV20081112
p2699
aF-1.0
aa(lp2700
VCVX
p2701
aV20081120
p2702
aF0.6666666666666666
aa(lp2703
VCVX
p2704
aV20081124
p2705
aI0
aa(lp2706
VCVX
p2707
aV20081125
p2708
aF1.0
aa(lp2709
VCVX
p2710
aV20081126
p2711
aF1.0
aa(lp2712
VCVX
p2713
aV20081201
p2714
aI0
aa(lp2715
VCVX
p2716
aV20081218
p2717
aF-1.0
aa(lp2718
VCVX
p2719
aV20081219
p2720
aI0
aa(lp2721
VCVX
p2722
aV20081222
p2723
aF-1.0
aaa(lp2724
(lp2725
VIBM
p2726
aV20080114
p2727
aI0
aa(lp2728
VIBM
p2729
aV20080118
p2730
aI0
aa(lp2731
VIBM
p2732
aV20080226
p2733
aI0
aa(lp2734
VIBM
p2735
aV20080416
p2736
aF1.0
aa(lp2737
VIBM
p2738
aV20080718
p2739
aI0
aa(lp2740
VIBM
p2741
aV20080902
p2742
aI0
aa(lp2743
VIBM
p2744
aV20080930
p2745
aF-0.7727272727272727
aa(lp2746
VIBM
p2747
aV20081001
p2748
aF-1.0
aa(lp2749
VIBM
p2750
aV20081002
p2751
aF-0.6666666666666666
aa(lp2752
VIBM
p2753
aV20081003
p2754
aF-0.6666666666666666
aa(lp2755
VIBM
p2756
aV20081006
p2757
aF-1.0
aa(lp2758
VIBM
p2759
aV20081007
p2760
aF-1.0
aa(lp2761
VIBM
p2762
aV20081008
p2763
aI0
aa(lp2764
VIBM
p2765
aV20081009
p2766
aI0
aa(lp2767
VIBM
p2768
aV20081010
p2769
aF-1.0
aa(lp2770
VIBM
p2771
aV20081022
p2772
aF1.0
aa(lp2773
VIBM
p2774
aV20081030
p2775
aF-0.7941176470588235
aa(lp2776
VIBM
p2777
aV20081031
p2778
aF-0.7941176470588235
aa(lp2779
VIBM
p2780
aV20081106
p2781
aI0
aa(lp2782
VIBM
p2783
aV20081120
p2784
aI0
aa(lp2785
VIBM
p2786
aV20081125
p2787
aF-1.0
aa(lp2788
VIBM
p2789
aV20081126
p2790
aI0
aa(lp2791
VIBM
p2792
aV20081208
p2793
aI0
aaa(lp2794
(lp2795
VWMT
p2796
aV20080131
p2797
aF0.6666666666666666
aa(lp2798
VWMT
p2799
aV20080320
p2800
aF-1.0
aa(lp2801
VWMT
p2802
aV20080605
p2803
aF-1.0
aa(lp2804
VWMT
p2805
aV20080805
p2806
aF0.7777777777777778
aa(lp2807
VWMT
p2808
aV20080902
p2809
aF-0.6666666666666666
aa(lp2810
VWMT
p2811
aV20080904
p2812
aF-0.8
aa(lp2813
VWMT
p2814
aV20081007
p2815
aI0
aa(lp2816
VWMT
p2817
aV20081009
p2818
aI0
aa(lp2819
VWMT
p2820
aV20081010
p2821
aI0
aa(lp2822
VWMT
p2823
aV20081028
p2824
aI0
aa(lp2825
VWMT
p2826
aV20081126
p2827
aI0
aa(lp2828
VWMT
p2829
aV20081205
p2830
aF-1.0
aaa(lp2831
(lp2832
VC
p2833
aV20080115
p2834
aI0
aa(lp2835
g2833
aV20080116
p2836
aI0
aa(lp2837
g2833
aV20080117
p2838
aI0
aa(lp2839
g2833
aV20080118
p2840
aF-1.0
aa(lp2841
g2833
aV20080124
p2842
aF-1.0
aa(lp2843
g2833
aV20080201
p2844
aF-0.6842105263157895
aa(lp2845
g2833
aV20080303
p2846
aF-0.6666666666666666
aa(lp2847
g2833
aV20080304
p2848
aF-1.0
aa(lp2849
g2833
aV20080304
p2850
aF-1.0
aa(lp2851
g2833
aV20080306
p2852
aF-1.0
aa(lp2853
g2833
aV20080310
p2854
aI0
aa(lp2855
g2833
aV20080317
p2856
aF-1.0
aa(lp2857
g2833
aV20080320
p2858
aI0
aa(lp2859
g2833
aV20080324
p2860
aI0
aa(lp2861
g2833
aV20080325
p2862
aF-1.0
aa(lp2863
g2833
aV20080328
p2864
aF-1.0
aa(lp2865
g2833
aV20080401
p2866
aI0
aa(lp2867
g2833
aV20080402
p2868
aF-1.0
aa(lp2869
g2833
aV20080403
p2870
aF-1.0
aa(lp2871
g2833
aV20080418
p2872
aI0
aa(lp2873
g2833
aV20080418
p2874
aI0
aa(lp2875
g2833
aV20080430
p2876
aI0
aa(lp2877
g2833
aV20080521
p2878
aF-1.0
aa(lp2879
g2833
aV20080609
p2880
aF-1.0
aa(lp2881
g2833
aV20080619
p2882
aI0
aa(lp2883
g2833
aV20080623
p2884
aI0
aa(lp2885
g2833
aV20080626
p2886
aF-0.6666666666666666
aa(lp2887
g2833
aV20080627
p2888
aF1.0
aa(lp2889
g2833
aV20080630
p2890
aF-1.0
aa(lp2891
g2833
aV20080714
p2892
aF-1.0
aa(lp2893
g2833
aV20080715
p2894
aF1.0
aa(lp2895
g2833
aV20080717
p2896
aI0
aa(lp2897
g2833
aV20080718
p2898
aF-1.0
aa(lp2899
g2833
aV20080721
p2900
aI0
aa(lp2901
g2833
aV20080722
p2902
aF-1.0
aa(lp2903
g2833
aV20080723
p2904
aF0.6666666666666666
aa(lp2905
g2833
aV20080725
p2906
aF-0.7547169811320755
aa(lp2907
g2833
aV20080728
p2908
aF-0.75
aa(lp2909
g2833
aV20080813
p2910
aF-1.0
aa(lp2911
g2833
aV20080828
p2912
aI0
aa(lp2913
g2833
aV20080908
p2914
aI0
aa(lp2915
g2833
aV20080908
p2916
aI0
aa(lp2917
g2833
aV20080915
p2918
aF-1.0
aa(lp2919
g2833
aV20080915
p2920
aF-1.0
aa(lp2921
g2833
aV20080916
p2922
aF-1.0
aa(lp2923
g2833
aV20080917
p2924
aI0
aa(lp2925
g2833
aV20080919
p2926
aI0
aa(lp2927
g2833
aV20080922
p2928
aF-1.0
aa(lp2929
g2833
aV20080923
p2930
aF1.0
aa(lp2931
g2833
aV20080929
p2932
aF-0.6666666666666666
aa(lp2933
g2833
aV20080929
p2934
aF-0.6666666666666666
aa(lp2935
g2833
aV20080930
p2936
aF-0.6
aa(lp2937
g2833
aV20081001
p2938
aF-1.0
aa(lp2939
g2833
aV20081002
p2940
aF-1.0
aa(lp2941
g2833
aV20081003
p2942
aF-1.0
aa(lp2943
g2833
aV20081003
p2944
aF-1.0
aa(lp2945
g2833
aV20081006
p2946
aF-1.0
aa(lp2947
g2833
aV20081007
p2948
aF-1.0
aa(lp2949
g2833
aV20081008
p2950
aI0
aa(lp2951
g2833
aV20081009
p2952
aF-1.0
aa(lp2953
g2833
aV20081013
p2954
aF-1.0
aa(lp2955
g2833
aV20081014
p2956
aF-1.0
aa(lp2957
g2833
aV20081017
p2958
aF-1.0
aa(lp2959
g2833
aV20081020
p2960
aI0
aa(lp2961
g2833
aV20081021
p2962
aI0
aa(lp2963
g2833
aV20081022
p2964
aF-1.0
aa(lp2965
g2833
aV20081023
p2966
aI0
aa(lp2967
g2833
aV20081024
p2968
aF-1.0
aa(lp2969
g2833
aV20081027
p2970
aI0
aa(lp2971
g2833
aV20081028
p2972
aF-1.0
aa(lp2973
g2833
aV20081031
p2974
aF-0.7941176470588235
aa(lp2975
g2833
aV20081104
p2976
aF-1.0
aa(lp2977
g2833
aV20081105
p2978
aF1.0
aa(lp2979
g2833
aV20081106
p2980
aF-1.0
aa(lp2981
g2833
aV20081106
p2982
aF-1.0
aa(lp2983
g2833
aV20081107
p2984
aF-1.0
aa(lp2985
g2833
aV20081110
p2986
aF-1.0
aa(lp2987
g2833
aV20081111
p2988
aF-1.0
aa(lp2989
g2833
aV20081112
p2990
aF-1.0
aa(lp2991
g2833
aV20081113
p2992
aF-1.0
aa(lp2993
g2833
aV20081113
p2994
aF-1.0
aa(lp2995
g2833
aV20081114
p2996
aF0.6
aa(lp2997
g2833
aV20081117
p2998
aF-1.0
aa(lp2999
g2833
aV20081118
p3000
aF-1.0
aa(lp3001
g2833
aV20081119
p3002
aF-1.0
aa(lp3003
g2833
aV20081120
p3004
aF-1.0
aa(lp3005
g2833
aV20081120
p3006
aF-1.0
aa(lp3007
g2833
aV20081121
p3008
aF-0.7714285714285715
aa(lp3009
g2833
aV20081121
p3010
aF-0.7714285714285715
aa(lp3011
g2833
aV20081125
p3012
aF1.0
aa(lp3013
g2833
aV20081126
p3014
aF-1.0
aa(lp3015
g2833
aV20081128
p3016
aI0
aa(lp3017
g2833
aV20081203
p3018
aF-1.0
aa(lp3019
g2833
aV20081205
p3020
aF-0.75
aa(lp3021
g2833
aV20081208
p3022
aI0
aa(lp3023
g2833
aV20081209
p3024
aF1.0
aa(lp3025
g2833
aV20081211
p3026
aF-1.0
aa(lp3027
g2833
aV20081212
p3028
aF-1.0
aa(lp3029
g2833
aV20081215
p3030
aF-1.0
aa(lp3031
g2833
aV20081219
p3032
aF-1.0
aa(lp3033
g2833
aV20081222
p3034
aI0
aa(lp3035
g2833
aV20081223
p3036
aF-1.0
aaa(lp3037
(lp3038
VJNJ
p3039
aV20080415
p3040
aF-1.0
aa(lp3041
VJNJ
p3042
aV20080620
p3043
aF-1.0
aa(lp3044
VJNJ
p3045
aV20080627
p3046
aF-1.0
aa(lp3047
VJNJ
p3048
aV20080902
p3049
aF-1.0
aa(lp3050
VJNJ
p3051
aV20080929
p3052
aF-1.0
aa(lp3053
VJNJ
p3054
aV20081009
p3055
aF-1.0
aa(lp3056
VJNJ
p3057
aV20081010
p3058
aF-1.0
aa(lp3059
VJNJ
p3060
aV20081014
p3061
aF-1.0
aa(lp3062
VJNJ
p3063
aV20081113
p3064
aF-1.0
aa(lp3065
VJNJ
p3066
aV20081120
p3067
aF-1.0
aaa(lp3068
(lp3069
VDIS
p3070
aV20080109
p3071
aI0
aa(lp3072
VDIS
p3073
aV20080206
p3074
aI0
aa(lp3075
VDIS
p3076
aV20080507
p3077
aF-1.0
aa(lp3078
VDIS
p3079
aV20080604
p3080
aF1.0
aa(lp3081
VDIS
p3082
aV20080620
p3083
aI0
aa(lp3084
VDIS
p3085
aV20080708
p3086
aI0
aa(lp3087
VDIS
p3088
aV20080731
p3089
aF1.0
aa(lp3090
VDIS
p3091
aV20080908
p3092
aF-0.6666666666666666
aa(lp3093
VDIS
p3094
aV20080929
p3095
aI0
aa(lp3096
VDIS
p3097
aV20080929
p3098
aI0
aa(lp3099
VDIS
p3100
aV20081006
p3101
aI0
aa(lp3102
VDIS
p3103
aV20081006
p3104
aI0
aa(lp3105
VDIS
p3106
aV20081007
p3107
aF1.0
aa(lp3108
VDIS
p3109
aV20081008
p3110
aF1.0
aa(lp3111
VDIS
p3112
aV20081009
p3113
aI0
aa(lp3114
VDIS
p3115
aV20081010
p3116
aI0
aa(lp3117
VDIS
p3118
aV20081013
p3119
aI0
aa(lp3120
VDIS
p3121
aV20081020
p3122
aF-1.0
aa(lp3123
VDIS
p3124
aV20081022
p3125
aI0
aa(lp3126
VDIS
p3127
aV20081024
p3128
aI0
aa(lp3129
VDIS
p3130
aV20081027
p3131
aF1.0
aa(lp3132
VDIS
p3133
aV20081030
p3134
aI0
aa(lp3135
VDIS
p3136
aV20081031
p3137
aI0
aa(lp3138
VDIS
p3139
aV20081106
p3140
aI0
aa(lp3141
VDIS
p3142
aV20081110
p3143
aI0
aa(lp3144
VDIS
p3145
aV20081112
p3146
aF-1.0
aa(lp3147
VDIS
p3148
aV20081117
p3149
aI0
aa(lp3150
VDIS
p3151
aV20081120
p3152
aF-1.0
aa(lp3153
VDIS
p3154
aV20081121
p3155
aI0
aa(lp3156
VDIS
p3157
aV20081124
p3158
aF-1.0
aa(lp3159
VDIS
p3160
aV20081125
p3161
aI0
aa(lp3162
VDIS
p3163
aV20081126
p3164
aI0
aa(lp3165
VDIS
p3166
aV20081201
p3167
aF1.0
aa(lp3168
VDIS
p3169
aV20081205
p3170
aI0
aa(lp3171
VDIS
p3172
aV20081208
p3173
aI0
aa(lp3174
VDIS
p3175
aV20081208
p3176
aI0
aa(lp3177
VDIS
p3178
aV20081230
p3179
aI0
aaa.